; ModuleID = '43/1517.c'
source_filename = "43/1517.c"
target datalayout = "e-m:e-p270:32:32-p271:32:32-p272:64:64-i64:64-f80:128-n8:16:32:64-S128"
target triple = "x86_64-pc-linux-gnu"

@.str = private unnamed_addr constant [3 x i8] c"%d\00", align 1
@.str.1 = private unnamed_addr constant [7 x i8] c"%d %d\0A\00", align 1

; Function Attrs: noinline nounwind uwtable
define dso_local void @main() #0 {
  %1 = alloca i32, align 4
  %2 = alloca i32, align 4
  %3 = alloca i32, align 4
  %4 = alloca i32, align 4
  %5 = call i32 (i8*, ...) @__isoc99_scanf(i8* getelementptr inbounds ([3 x i8], [3 x i8]* @.str, i64 0, i64 0), i32* %1)
  br label %6

6:                                                ; preds = %0
  %7 = load i32, i32* %1, align 4
  %8 = icmp sge i32 %7, 6
  br i1 %8, label %9, label %13

9:                                                ; preds = %6
  %10 = load i32, i32* %1, align 4
  %11 = srem i32 %10, 2
  %12 = icmp eq i32 %11, 0
  br label %13

13:                                               ; preds = %9, %6
  %14 = phi i1 [ false, %6 ], [ %12, %9 ]
  br i1 %14, label %15, label %42

15:                                               ; preds = %13
  store i32 2, i32* %2, align 4
  br label %16

16:                                               ; preds = %38, %15
  %17 = load i32, i32* %2, align 4
  %18 = load i32, i32* %1, align 4
  %19 = sdiv i32 %18, 2
  %20 = icmp sle i32 %17, %19
  br i1 %20, label %21, label %41

21:                                               ; preds = %16
  %22 = load i32, i32* %2, align 4
  %23 = call i32 @flag(i32 %22)
  %24 = icmp eq i32 %23, 0
  br i1 %24, label %25, label %37

25:                                               ; preds = %21
  %26 = load i32, i32* %1, align 4
  %27 = load i32, i32* %2, align 4
  %28 = sub nsw i32 %26, %27
  %29 = call i32 @flag(i32 %28)
  %30 = icmp eq i32 %29, 0
  br i1 %30, label %31, label %37

31:                                               ; preds = %25
  %32 = load i32, i32* %2, align 4
  %33 = load i32, i32* %1, align 4
  %34 = load i32, i32* %2, align 4
  %35 = sub nsw i32 %33, %34
  %36 = call i32 (i8*, ...) @printf(i8* getelementptr inbounds ([7 x i8], [7 x i8]* @.str.1, i64 0, i64 0), i32 %32, i32 %35)
  br label %37

37:                                               ; preds = %31, %25, %21
  br label %38

38:                                               ; preds = %37
  %39 = load i32, i32* %2, align 4
  %40 = add nsw i32 %39, 1
  store i32 %40, i32* %2, align 4
  br label %16

41:                                               ; preds = %16
  br label %42

42:                                               ; preds = %41, %13
  ret void
}

declare dso_local i32 @__isoc99_scanf(i8*, ...) #1

; Function Attrs: noinline nounwind uwtable
define dso_local i32 @flag(i32 %0) #0 {
  %2 = alloca i32, align 4
  %3 = alloca i32, align 4
  %4 = alloca i32, align 4
  %5 = alloca i32, align 4
  store i32 %0, i32* %2, align 4
  %6 = load i32, i32* %2, align 4
  %7 = sitofp i32 %6 to double
  %8 = call double @sqrt(double %7) #3
  %9 = fptosi double %8 to i32
  store i32 %9, i32* %4, align 4
  store i32 2, i32* %5, align 4
  store i32 0, i32* %3, align 4
  br label %10

10:                                               ; preds = %21, %1
  %11 = load i32, i32* %5, align 4
  %12 = load i32, i32* %4, align 4
  %13 = icmp sle i32 %11, %12
  br i1 %13, label %14, label %24

14:                                               ; preds = %10
  %15 = load i32, i32* %2, align 4
  %16 = load i32, i32* %5, align 4
  %17 = srem i32 %15, %16
  %18 = icmp eq i32 %17, 0
  br i1 %18, label %19, label %20

19:                                               ; preds = %14
  store i32 1, i32* %3, align 4
  br label %24

20:                                               ; preds = %14
  br label %21

21:                                               ; preds = %20
  %22 = load i32, i32* %5, align 4
  %23 = add nsw i32 %22, 1
  store i32 %23, i32* %5, align 4
  br label %10

24:                                               ; preds = %19, %10
  %25 = load i32, i32* %3, align 4
  ret i32 %25
}

declare dso_local i32 @printf(i8*, ...) #1

; Function Attrs: nounwind
declare dso_local double @sqrt(double) #2


!llvm.module.flags = !{!0}
!llvm.ident = !{!1}

!0 = !{i32 1, !"wchar_size", i32 4}
!1 = !{!"clang version 10.0.0-4ubuntu1 "}
