; ModuleID = 'source-C-CXX/42/1517.c'
source_filename = "source-C-CXX/42/1517.c"
target datalayout = "e-m:e-p270:32:32-p271:32:32-p272:64:64-i64:64-f80:128-n8:16:32:64-S128"
target triple = "x86_64-pc-linux-gnu"

@.str = private unnamed_addr constant [3 x i8] c"%d\00", align 1
@.str.1 = private unnamed_addr constant [7 x i8] c"%d %d\0A\00", align 1

; Function Attrs: nofree nounwind sspstrong uwtable
define dso_local void @main() local_unnamed_addr #0 {
  %1 = alloca i32, align 4
  %2 = bitcast i32* %1 to i8*
  call void @llvm.lifetime.start.p0i8(i64 4, i8* nonnull %2) #4
  %3 = call i32 (i8*, ...) @__isoc99_scanf(i8* getelementptr inbounds ([3 x i8], [3 x i8]* @.str, i64 0, i64 0), i32* nonnull %1)
  %4 = load i32, i32* %1, align 4, !tbaa !5
  %5 = icmp sgt i32 %4, 5
  %6 = and i32 %4, 1
  %7 = icmp eq i32 %6, 0
  %8 = and i1 %5, %7
  br i1 %8, label %9, label %45

9:                                                ; preds = %0, %40
  %10 = phi i32 [ %41, %40 ], [ 2, %0 ]
  %11 = sitofp i32 %10 to double
  %12 = call double @sqrt(double %11) #4
  %13 = fptosi double %12 to i32
  %14 = icmp slt i32 %13, 2
  br i1 %14, label %22, label %18

15:                                               ; preds = %18
  %16 = add nuw i32 %19, 1
  %17 = icmp eq i32 %19, %13
  br i1 %17, label %22, label %18, !llvm.loop !9

18:                                               ; preds = %9, %15
  %19 = phi i32 [ %16, %15 ], [ 2, %9 ]
  %20 = urem i32 %10, %19
  %21 = icmp eq i32 %20, 0
  br i1 %21, label %40, label %15

22:                                               ; preds = %15, %9
  %23 = load i32, i32* %1, align 4, !tbaa !5
  %24 = sub nsw i32 %23, %10
  %25 = sitofp i32 %24 to double
  %26 = call double @sqrt(double %25) #4
  %27 = fptosi double %26 to i32
  %28 = icmp slt i32 %27, 2
  br i1 %28, label %36, label %32

29:                                               ; preds = %32
  %30 = add nuw i32 %33, 1
  %31 = icmp eq i32 %33, %27
  br i1 %31, label %36, label %32, !llvm.loop !9

32:                                               ; preds = %22, %29
  %33 = phi i32 [ %30, %29 ], [ 2, %22 ]
  %34 = srem i32 %24, %33
  %35 = icmp eq i32 %34, 0
  br i1 %35, label %40, label %29

36:                                               ; preds = %29, %22
  %37 = load i32, i32* %1, align 4, !tbaa !5
  %38 = sub nsw i32 %37, %10
  %39 = call i32 (i8*, ...) @printf(i8* nonnull dereferenceable(1) getelementptr inbounds ([7 x i8], [7 x i8]* @.str.1, i64 0, i64 0), i32 %10, i32 %38)
  br label %40

40:                                               ; preds = %18, %32, %36
  %41 = add nuw nsw i32 %10, 1
  %42 = load i32, i32* %1, align 4, !tbaa !5
  %43 = sdiv i32 %42, 2
  %44 = icmp slt i32 %10, %43
  br i1 %44, label %9, label %45, !llvm.loop !11

45:                                               ; preds = %40, %0
  call void @llvm.lifetime.end.p0i8(i64 4, i8* nonnull %2) #4
  ret void
}

; Function Attrs: argmemonly mustprogress nofree nosync nounwind willreturn
declare void @llvm.lifetime.start.p0i8(i64 immarg, i8* nocapture) #1

; Function Attrs: nofree nounwind
declare noundef i32 @__isoc99_scanf(i8* nocapture noundef readonly, ...) local_unnamed_addr #2

; Function Attrs: nofree nounwind sspstrong uwtable
define dso_local i32 @flag(i32 %0) local_unnamed_addr #0 {
  %2 = sitofp i32 %0 to double
  %3 = tail call double @sqrt(double %2) #4
  %4 = fptosi double %3 to i32
  %5 = icmp slt i32 %4, 2
  br i1 %5, label %13, label %9

6:                                                ; preds = %9
  %7 = add nuw i32 %10, 1
  %8 = icmp eq i32 %10, %4
  br i1 %8, label %13, label %9, !llvm.loop !9

9:                                                ; preds = %1, %6
  %10 = phi i32 [ %7, %6 ], [ 2, %1 ]
  %11 = srem i32 %0, %10
  %12 = icmp eq i32 %11, 0
  br i1 %12, label %13, label %6

13:                                               ; preds = %6, %9, %1
  %14 = phi i32 [ 0, %1 ], [ 1, %9 ], [ 0, %6 ]
  ret i32 %14
}

; Function Attrs: nofree nounwind
declare noundef i32 @printf(i8* nocapture noundef readonly, ...) local_unnamed_addr #2

; Function Attrs: argmemonly mustprogress nofree nosync nounwind willreturn
declare void @llvm.lifetime.end.p0i8(i64 immarg, i8* nocapture) #1

; Function Attrs: mustprogress nofree nounwind willreturn
declare double @sqrt(double) local_unnamed_addr #3


!llvm.module.flags = !{!0, !1, !2, !3}
!llvm.ident = !{!4}

!0 = !{i32 1, !"wchar_size", i32 4}
!1 = !{i32 7, !"PIC Level", i32 2}
!2 = !{i32 7, !"PIE Level", i32 2}
!3 = !{i32 7, !"uwtable", i32 1}
!4 = !{!"clang version 13.0.0"}
!5 = !{!6, !6, i64 0}
!6 = !{!"int", !7, i64 0}
!7 = !{!"omnipotent char", !8, i64 0}
!8 = !{!"Simple C/C++ TBAA"}
!9 = distinct !{!9, !10}
!10 = !{!"llvm.loop.mustprogress"}
!11 = distinct !{!11, !10}
